target datalayout = "e-m:e-p270:32:32-p271:32:32-p272:64:64-i64:64-i128:128-f80:128-n8:16:32:64-S128"
target triple = "x86_64-pc-linux-gnu"

%struct.cf_callback_data_t = type { ptr, ptr }
%struct._GList = type { ptr, ptr, ptr }
%struct._capture_file = type { ptr, i32, ptr, ptr, i8, i8, i8, i64, i16, i32, i32, i32, ptr, i32, i64, i32, i32, i32, i32, i8, i32, %struct.nstime_t, i32, ptr, ptr, ptr, i8, i8, i32, ptr, i8, i8, i8, i8, i8, i32, i32, i8, ptr, i32, i32, i8, %struct.packet_provider_data, i32, i32, %struct.epan_column_info, ptr, ptr, ptr, %struct.wtap_rec, %struct.Buffer, ptr, i64, i32 }
%struct.nstime_t = type { i64, i32 }
%struct.packet_provider_data = type { ptr, ptr, ptr, ptr, ptr, ptr }
%struct.epan_column_info = type { ptr, i32, ptr, ptr, ptr, %struct.col_expr_t, i8, ptr }
%struct.col_expr_t = type { ptr, ptr }
%struct.wtap_rec = type { i32, i32, i32, %struct.nstime_t, i32, %struct.nstime_t, i8, %union.anon, ptr, i8, %struct.Buffer, %struct.Buffer }
%union.anon = type { %struct.wtap_packet_header }
%struct.wtap_packet_header = type { i32, i32, i32, i32, %union.wtap_pseudo_header }
%union.wtap_pseudo_header = type { %struct.erf_mc_phdr }
%struct.erf_mc_phdr = type { %struct.erf_phdr, [16 x %struct.erf_ehdr], %union.anon.1 }
%struct.erf_phdr = type { i64, i8, i8, i16, i16, i16 }
%struct.erf_ehdr = type { i64 }
%union.anon.1 = type { i32 }
%struct.Buffer = type { ptr, i64, i64, i64 }
%struct.epan_dissect = type { ptr, ptr, ptr, %struct._packet_info }
%struct._packet_info = type { ptr, ptr, i32, i32, %struct.nstime_t, %struct.nstime_t, %struct.nstime_t, i8, ptr, ptr, ptr, ptr, %struct._address, %struct._address, %struct._address, %struct._address, %struct._address, %struct._address, i32, ptr, i8, [3 x i8], %struct.anon.3, i32, i32, i32, i32, ptr, i8, ptr, ptr, i16, i16, i32, i32, i16, i32, i32, ptr, ptr, ptr, i8, i8, i16, i16, i16, i32, i16, i16, ptr, ptr, ptr, ptr, ptr, i32, i32 }
%struct._address = type { i32, i32, ptr, ptr }
%struct.anon.3 = type { i8, [3 x i8] }
%struct.packet_range_tag = type { i32, i8, i8, i8, ptr, i32, ptr, i32, ptr, i32, i32, i32, i32, i32, i32, i32, i32, i32, i32, i32, i32, i32, i32, i32, i32, i32, i32, i32, i32, i32, i32, i32, i32, i32, i32, i32, ptr, ptr, ptr, ptr, ptr, ptr, ptr, ptr, i8, i32 }
%struct.retap_callback_args_t = type { %struct.epan_dissect, ptr }

@cf_callbacks = internal global ptr null, align 8
@.str = private unnamed_addr constant [8 x i8] c"Capture\00", align 1
@.str.1 = private unnamed_addr constant [7 x i8] c"file.c\00", align 1
@.str.2 = private unnamed_addr constant [31 x i8] c"assertion \22not reached\22 failed\00", align 1
@.str.21 = private unnamed_addr constant [12 x i8] c"all packets\00", align 1
@__func__.cf_retap_packets = private unnamed_addr constant [17 x i8] c"cf_retap_packets\00", align 1
@.str.22 = private unnamed_addr constant [60 x i8] c"Failing due to nested process_specified_records(\22%s\22) call!\00", align 1
@.str.23 = private unnamed_addr constant [4 x i8] c"-%u\00", align 1
@.str.24 = private unnamed_addr constant [2 x i8] c"0\00", align 1
@.str.25 = private unnamed_addr constant [28 x i8] c"Recalculating statistics on\00", align 1

; Function Attrs: null_pointer_is_valid sspstrong uwtable
define internal void @cf_callback_invoke(i32 noundef %0, ptr noundef %1) #1 {
  %3 = alloca i32, align 4
  %4 = alloca ptr, align 8
  %5 = alloca ptr, align 8
  %6 = alloca ptr, align 8
  store i32 %0, ptr %3, align 4
  store ptr %1, ptr %4, align 8
  call void @llvm.lifetime.start.p0(i64 8, ptr %5) #19
  call void @llvm.lifetime.start.p0(i64 8, ptr %6) #19
  %7 = load ptr, ptr @cf_callbacks, align 8
  store ptr %7, ptr %6, align 8
  br label %8

8:                                                ; preds = %2
  br label %9

9:                                                ; preds = %8
  br label %10

10:                                               ; preds = %9
  br label %11

11:                                               ; preds = %33, %10
  %12 = load ptr, ptr %6, align 8
  %13 = icmp ne ptr %12, null
  br i1 %13, label %14, label %35

14:                                               ; preds = %11
  %15 = load ptr, ptr %6, align 8
  %16 = getelementptr inbounds nuw %struct._GList, ptr %15, i32 0, i32 0
  %17 = load ptr, ptr %16, align 8
  store ptr %17, ptr %5, align 8
  %18 = load ptr, ptr %5, align 8
  %19 = getelementptr inbounds nuw %struct.cf_callback_data_t, ptr %18, i32 0, i32 0
  %20 = load ptr, ptr %19, align 8
  %21 = load i32, ptr %3, align 4
  %22 = load ptr, ptr %4, align 8
  %23 = load ptr, ptr %5, align 8
  %24 = getelementptr inbounds nuw %struct.cf_callback_data_t, ptr %23, i32 0, i32 1
  %25 = load ptr, ptr %24, align 8
  call void %20(i32 noundef %21, ptr noundef %22, ptr noundef %25)
  %26 = load ptr, ptr %6, align 8
  %27 = icmp ne ptr %26, null
  br i1 %27, label %28, label %32

28:                                               ; preds = %14
  %29 = load ptr, ptr %6, align 8
  %30 = getelementptr inbounds nuw %struct._GList, ptr %29, i32 0, i32 1
  %31 = load ptr, ptr %30, align 8
  br label %33

32:                                               ; preds = %14
  br label %33

33:                                               ; preds = %32, %28
  %34 = phi ptr [ %31, %28 ], [ null, %32 ]
  store ptr %34, ptr %6, align 8
  br label %11, !llvm.loop !10

35:                                               ; preds = %11
  call void @llvm.lifetime.end.p0(i64 8, ptr %6) #19
  call void @llvm.lifetime.end.p0(i64 8, ptr %5) #19
  ret void
}

; Function Attrs: null_pointer_is_valid sspstrong uwtable
define hidden i32 @cf_retap_packets(ptr noundef %0) #1 {
  %2 = alloca i32, align 4
  %3 = alloca ptr, align 8
  %4 = alloca %struct.packet_range_tag, align 8
  %5 = alloca %struct.retap_callback_args_t, align 8
  %6 = alloca i8, align 1
  %7 = alloca i8, align 1
  %8 = alloca i32, align 4
  %9 = alloca i32, align 4
  %10 = alloca i32, align 4
  %11 = alloca i32, align 4
  %12 = alloca ptr, align 8
  store ptr %0, ptr %3, align 8
  call void @llvm.lifetime.start.p0(i64 232, ptr %4) #19
  call void @llvm.lifetime.start.p0(i64 472, ptr %5) #19
  call void @llvm.lifetime.start.p0(i64 1, ptr %6) #19
  call void @llvm.lifetime.start.p0(i64 1, ptr %7) #19
  call void @llvm.lifetime.start.p0(i64 4, ptr %8) #19
  call void @llvm.lifetime.start.p0(i64 4, ptr %9) #19
  %13 = load ptr, ptr %3, align 8
  %14 = icmp eq ptr %13, null
  br i1 %14, label %15, label %16

15:                                               ; preds = %1
  store i32 2, ptr %2, align 4
  store i32 1, ptr %10, align 4
  br label %106

16:                                               ; preds = %1
  %17 = load ptr, ptr %3, align 8
  %18 = getelementptr inbounds nuw %struct._capture_file, ptr %17, i32 0, i32 27
  %19 = load i8, ptr %18, align 1, !range !8, !noundef !9
  %20 = trunc i8 %19 to i1
  br i1 %20, label %21, label %28

21:                                               ; preds = %16
  br label %22

22:                                               ; preds = %21
  %23 = load ptr, ptr %3, align 8
  %24 = getelementptr inbounds nuw %struct._capture_file, ptr %23, i32 0, i32 2
  %25 = load ptr, ptr %24, align 8
  call void (ptr, i32, ptr, i64, ptr, ptr, ...) @ws_log_full(ptr noundef @.str, i32 noundef 5, ptr noundef @.str.1, i64 noundef 2338, ptr noundef @__func__.cf_retap_packets, ptr noundef @.str.22, ptr noundef %25)
  br label %26

26:                                               ; preds = %22
  br label %27

27:                                               ; preds = %26
  store i32 1, ptr %2, align 4
  store i32 1, ptr %10, align 4
  br label %106

28:                                               ; preds = %16
  %29 = load ptr, ptr %3, align 8
  call void @cf_callback_invoke(i32 noundef 9, ptr noundef %29)
  %30 = call zeroext i1 @have_filtering_tap_listeners()
  %31 = zext i1 %30 to i8
  store i8 %31, ptr %7, align 1
  %32 = load ptr, ptr %3, align 8
  %33 = getelementptr inbounds nuw %struct._capture_file, ptr %32, i32 0, i32 47
  %34 = load ptr, ptr %33, align 8
  %35 = icmp ne ptr %34, null
  br i1 %35, label %36, label %51

36:                                               ; preds = %28
  %37 = load ptr, ptr %3, align 8
  %38 = getelementptr inbounds nuw %struct._capture_file, ptr %37, i32 0, i32 47
  %39 = load ptr, ptr %38, align 8
  %40 = getelementptr inbounds nuw %struct.epan_dissect, ptr %39, i32 0, i32 2
  %41 = load ptr, ptr %40, align 8
  %42 = icmp ne ptr %41, null
  br i1 %42, label %43, label %51

43:                                               ; preds = %36
  %44 = load i8, ptr %7, align 1, !range !8, !noundef !9
  %45 = trunc i8 %44 to i1
  br i1 %45, label %46, label %50

46:                                               ; preds = %43
  %47 = load ptr, ptr %3, align 8
  %48 = getelementptr inbounds nuw %struct._capture_file, ptr %47, i32 0, i32 47
  %49 = load ptr, ptr %48, align 8
  call void @tap_listeners_load_field_references(ptr noundef %49)
  br label %50

50:                                               ; preds = %46, %43
  br label %51

51:                                               ; preds = %50, %36, %28
  %52 = call i32 @union_of_tap_listener_flags()
  store i32 %52, ptr %8, align 4
  %53 = call zeroext i1 @tap_listeners_require_columns()
  br i1 %53, label %54, label %57

54:                                               ; preds = %51
  %55 = load ptr, ptr %3, align 8
  %56 = getelementptr inbounds nuw %struct._capture_file, ptr %55, i32 0, i32 45
  br label %58

57:                                               ; preds = %51
  br label %58

58:                                               ; preds = %57, %54
  %59 = phi ptr [ %56, %54 ], [ null, %57 ]
  %60 = getelementptr inbounds nuw %struct.retap_callback_args_t, ptr %5, i32 0, i32 1
  store ptr %59, ptr %60, align 8
  %61 = load i8, ptr %7, align 1, !range !8, !noundef !9
  %62 = trunc i8 %61 to i1
  br i1 %62, label %67, label %63

63:                                               ; preds = %58
  %64 = load i32, ptr %8, align 4
  %65 = and i32 %64, 1
  %66 = icmp ne i32 %65, 0
  br label %67

67:                                               ; preds = %63, %58
  %68 = phi i1 [ true, %58 ], [ %66, %63 ]
  %69 = zext i1 %68 to i8
  store i8 %69, ptr %6, align 1
  call void @reset_tap_listeners()
  call void @llvm.lifetime.start.p0(i64 4, ptr %11) #19
  %70 = load ptr, ptr %3, align 8
  %71 = getelementptr inbounds nuw %struct._capture_file, ptr %70, i32 0, i32 13
  %72 = load i32, ptr %71, align 8
  store i32 %72, ptr %11, align 4
  %73 = getelementptr inbounds nuw %struct.retap_callback_args_t, ptr %5, i32 0, i32 0
  %74 = load ptr, ptr %3, align 8
  %75 = getelementptr inbounds nuw %struct._capture_file, ptr %74, i32 0, i32 0
  %76 = load ptr, ptr %75, align 8
  %77 = load i8, ptr %6, align 1, !range !8, !noundef !9
  %78 = trunc i8 %77 to i1
  call void @epan_dissect_init(ptr noundef %73, ptr noundef %76, i1 noundef zeroext %78, i1 noundef zeroext false)
  %79 = load ptr, ptr %3, align 8
  call void @packet_range_init(ptr noundef %4, ptr noundef %79)
  call void @packet_range_process_init(ptr noundef %4)
  %80 = load ptr, ptr %3, align 8
  %81 = getelementptr inbounds nuw %struct._capture_file, ptr %80, i32 0, i32 1
  %82 = load i32, ptr %81, align 8
  %83 = icmp eq i32 %82, 2
  br i1 %83, label %84, label %95

84:                                               ; preds = %67
  %85 = load i32, ptr %11, align 4
  %86 = icmp ne i32 %85, 0
  br i1 %86, label %87, label %92

87:                                               ; preds = %84
  call void @llvm.lifetime.start.p0(i64 8, ptr %12) #19
  %88 = load i32, ptr %11, align 4
  %89 = call noalias ptr (ptr, ...) @g_strdup_printf(ptr noundef @.str.23, i32 noundef %88)
  store ptr %89, ptr %12, align 8
  %90 = load ptr, ptr %12, align 8
  call void @packet_range_convert_str(ptr noundef %4, ptr noundef %90)
  %91 = load ptr, ptr %12, align 8
  call void @g_free(ptr noundef %91)
  call void @llvm.lifetime.end.p0(i64 8, ptr %12) #19
  br label %93

92:                                               ; preds = %84
  call void @packet_range_convert_str(ptr noundef %4, ptr noundef @.str.24)
  br label %93

93:                                               ; preds = %92, %87
  %94 = getelementptr inbounds nuw %struct.packet_range_tag, ptr %4, i32 0, i32 0
  store i32 4, ptr %94, align 8
  br label %95

95:                                               ; preds = %93, %67
  %96 = load ptr, ptr %3, align 8
  %97 = call i32 @process_specified_records(ptr noundef %96, ptr noundef %4, ptr noundef @.str.25, ptr noundef @.str.21, i1 noundef zeroext true, ptr noundef @retap_packet, ptr noundef %5, i1 noundef zeroext true)
  store i32 %97, ptr %9, align 4
  call void @packet_range_cleanup(ptr noundef %4)
  %98 = getelementptr inbounds nuw %struct.retap_callback_args_t, ptr %5, i32 0, i32 0
  call void @epan_dissect_cleanup(ptr noundef %98)
  %99 = load ptr, ptr %3, align 8
  call void @cf_callback_invoke(i32 noundef 10, ptr noundef %99)
  %100 = load i32, ptr %9, align 4
  switch i32 %100, label %104 [
    i32 0, label %101
    i32 1, label %102
    i32 2, label %103
  ]

101:                                              ; preds = %95
  store i32 0, ptr %2, align 4
  store i32 1, ptr %10, align 4
  br label %105

102:                                              ; preds = %95
  store i32 2, ptr %2, align 4
  store i32 1, ptr %10, align 4
  br label %105

103:                                              ; preds = %95
  store i32 1, ptr %2, align 4
  store i32 1, ptr %10, align 4
  br label %105

104:                                              ; preds = %95
  call void (ptr, i32, ptr, i64, ptr, ptr, ...) @ws_log_fatal_full(ptr noundef @.str, i32 noundef 7, ptr noundef @.str.1, i64 noundef 2439, ptr noundef @__func__.cf_retap_packets, ptr noundef @.str.2) #22
  unreachable

105:                                              ; preds = %103, %102, %101
  call void @llvm.lifetime.end.p0(i64 4, ptr %11) #19
  br label %106

106:                                              ; preds = %105, %27, %15
  call void @llvm.lifetime.end.p0(i64 4, ptr %9) #19
  call void @llvm.lifetime.end.p0(i64 4, ptr %8) #19
  call void @llvm.lifetime.end.p0(i64 1, ptr %7) #19
  call void @llvm.lifetime.end.p0(i64 1, ptr %6) #19
  call void @llvm.lifetime.end.p0(i64 472, ptr %5) #19
  call void @llvm.lifetime.end.p0(i64 232, ptr %4) #19
  %107 = load i32, ptr %2, align 4
  ret i32 %107
}