; Function Attrs: null_pointer_is_valid sspstrong uwtable
define hidden range(i32 0, 3) i32 @cf_retap_packets(ptr noundef %0) local_unnamed_addr #1 {
  %2 = alloca %struct.packet_range_tag, align 8
  %3 = alloca %struct.retap_callback_args_t, align 8
  call void @llvm.lifetime.start.p0(i64 232, ptr nonnull %2) #23
  call void @llvm.lifetime.start.p0(i64 472, ptr nonnull %3) #23
  %4 = icmp eq ptr %0, null
  br i1 %4, label %53, label %5

5:                                                ; preds = %1
  %6 = getelementptr inbounds nuw i8, ptr %0, i64 161
  %7 = load i8, ptr %6, align 1, !range !9, !noundef !10
  %8 = trunc nuw i8 %7 to i1
  br i1 %8, label %9, label %12

9:                                                ; preds = %5
  %10 = getelementptr inbounds nuw i8, ptr %0, i64 16
  %11 = load ptr, ptr %10, align 8
  tail call void (ptr, i32, ptr, i64, ptr, ptr, ...) @ws_log_full(ptr noundef nonnull @.str, i32 noundef 5, ptr noundef nonnull @.str.1, i64 noundef 2338, ptr noundef nonnull @__func__.cf_retap_packets, ptr noundef nonnull @.str.22, ptr noundef %11)
  br label %53

12:                                               ; preds = %5
  %.07.i = load ptr, ptr @cf_callbacks, align 8
  %.not8.i = icmp eq ptr %.07.i, null
  br i1 %.not8.i, label %cf_callback_invoke.exit, label %.lr.ph.i

.lr.ph.i:                                         ; preds = %12, %.lr.ph.i
  %.09.i = phi ptr [ %.0.i, %.lr.ph.i ], [ %.07.i, %12 ]
  %13 = load ptr, ptr %.09.i, align 8
  %14 = load ptr, ptr %13, align 8
  %15 = getelementptr inbounds nuw i8, ptr %13, i64 8
  %16 = load ptr, ptr %15, align 8
  tail call void %14(i32 noundef 9, ptr noundef nonnull %0, ptr noundef %16)
  %17 = getelementptr inbounds nuw i8, ptr %.09.i, i64 8
  %.0.i = load ptr, ptr %17, align 8
  %.not.i = icmp eq ptr %.0.i, null
  br i1 %.not.i, label %cf_callback_invoke.exit, label %.lr.ph.i, !llvm.loop !8

cf_callback_invoke.exit:                          ; preds = %.lr.ph.i, %12
  %18 = tail call zeroext i1 @have_filtering_tap_listeners()
  %19 = getelementptr inbounds nuw i8, ptr %0, i64 360
  %20 = load ptr, ptr %19, align 8
  %.not = icmp eq ptr %20, null
  br i1 %.not, label %25, label %21

21:                                               ; preds = %cf_callback_invoke.exit
  %22 = getelementptr inbounds nuw i8, ptr %20, i64 16
  %23 = load ptr, ptr %22, align 8
  %.not26 = icmp ne ptr %23, null
  %brmerge.not = select i1 %.not26, i1 %18, i1 false
  br i1 %brmerge.not, label %24, label %25

24:                                               ; preds = %21
  tail call void @tap_listeners_load_field_references(ptr noundef nonnull %20)
  br label %25

25:                                               ; preds = %21, %24, %cf_callback_invoke.exit
  %26 = tail call i32 @union_of_tap_listener_flags()
  %27 = tail call zeroext i1 @tap_listeners_require_columns()
  %28 = getelementptr inbounds nuw i8, ptr %0, i64 280
  %29 = select i1 %27, ptr %28, ptr null
  %30 = getelementptr inbounds nuw i8, ptr %3, i64 464
  store ptr %29, ptr %30, align 8
  %31 = and i32 %26, 1
  %32 = icmp ne i32 %31, 0
  %33 = select i1 %18, i1 true, i1 %32
  tail call void @reset_tap_listeners()
  %34 = getelementptr inbounds nuw i8, ptr %0, i64 72
  %35 = load i32, ptr %34, align 8
  %36 = load ptr, ptr %0, align 8
  call void @epan_dissect_init(ptr noundef nonnull %3, ptr noundef %36, i1 noundef zeroext %33, i1 noundef zeroext false)
  call void @packet_range_init(ptr noundef nonnull %2, ptr noundef nonnull %0)
  call void @packet_range_process_init(ptr noundef nonnull %2)
  %37 = getelementptr inbounds nuw i8, ptr %0, i64 8
  %38 = load i32, ptr %37, align 8
  %39 = icmp eq i32 %38, 2
  br i1 %39, label %40, label %45

40:                                               ; preds = %25
  %.not27 = icmp eq i32 %35, 0
  br i1 %.not27, label %43, label %41

41:                                               ; preds = %40
  %42 = call noalias ptr (ptr, ...) @g_strdup_printf(ptr noundef nonnull @.str.23, i32 noundef %35)
  call void @packet_range_convert_str(ptr noundef nonnull %2, ptr noundef %42)
  call void @g_free(ptr noundef %42)
  br label %44

43:                                               ; preds = %40
  call void @packet_range_convert_str(ptr noundef nonnull %2, ptr noundef nonnull @.str.24)
  br label %44

44:                                               ; preds = %43, %41
  store i32 4, ptr %2, align 8
  br label %45

45:                                               ; preds = %44, %25
  %46 = call fastcc i32 @process_specified_records(ptr noundef nonnull %0, ptr noundef nonnull %2, ptr noundef nonnull @.str.25, ptr noundef nonnull @.str.21, ptr noundef nonnull @retap_packet, ptr noundef nonnull %3, i1 noundef zeroext true)
  call void @packet_range_cleanup(ptr noundef nonnull %2)
  call void @epan_dissect_cleanup(ptr noundef nonnull %3)
  %.07.i29 = load ptr, ptr @cf_callbacks, align 8
  %.not8.i30 = icmp eq ptr %.07.i29, null
  br i1 %.not8.i30, label %switch.lookup, label %.lr.ph.i31

.lr.ph.i31:                                       ; preds = %45, %.lr.ph.i31
  %.09.i32 = phi ptr [ %.0.i33, %.lr.ph.i31 ], [ %.07.i29, %45 ]
  %47 = load ptr, ptr %.09.i32, align 8
  %48 = load ptr, ptr %47, align 8
  %49 = getelementptr inbounds nuw i8, ptr %47, i64 8
  %50 = load ptr, ptr %49, align 8
  call void %48(i32 noundef 10, ptr noundef nonnull %0, ptr noundef %50)
  %51 = getelementptr inbounds nuw i8, ptr %.09.i32, i64 8
  %.0.i33 = load ptr, ptr %51, align 8
  %.not.i34 = icmp eq ptr %.0.i33, null
  br i1 %.not.i34, label %switch.lookup, label %.lr.ph.i31, !llvm.loop !8

switch.lookup:                                    ; preds = %.lr.ph.i31, %45
  %52 = zext nneg i32 %46 to i64
  %switch.gep = getelementptr inbounds nuw [3 x i32], ptr @switch.table.cf_retap_packets, i64 0, i64 %52
  %switch.load = load i32, ptr %switch.gep, align 4
  br label %53

53:                                               ; preds = %switch.lookup, %1, %9
  %.0 = phi i32 [ 1, %9 ], [ 2, %1 ], [ %switch.load, %switch.lookup ]
  call void @llvm.lifetime.end.p0(i64 472, ptr nonnull %3) #23
  call void @llvm.lifetime.end.p0(i64 232, ptr nonnull %2) #23
  ret i32 %.0
}